target datalayout = "e-m:e-p270:32:32-p271:32:32-p272:64:64-i64:64-i128:128-f80:128-n8:16:32:64-S128"
target triple = "x86_64-pc-linux-gnu"

%class.CodeInstaller = type <{ %class.Arena, ptr, i32, %class.CodeOffsets, i32, i32, i32, i32, i32, i32, i8, i8, [2 x i8], i32, [4 x i8], ptr, ptr, ptr, ptr, ptr, ptr, %class.ExceptionHandlerTable, %class.ImplicitExceptionTable, i8, [7 x i8] }>
%class.Arena = type { i8, i8, i64, ptr, ptr, ptr, ptr }
%class.CodeOffsets = type { [8 x i32] }
%class.ExceptionHandlerTable = type <{ ptr, i32, i32, %class.ReallocMark, [7 x i8] }>
%class.ReallocMark = type { i8 }
%class.ImplicitExceptionTable = type <{ i32, i32, ptr, %class.ReallocMark, [7 x i8] }>
%class.CodeSection = type { ptr, ptr, ptr, ptr, ptr, ptr, ptr, ptr, i8, i8, i32, i8, ptr }

@JVMCITraceLevel = external global i64, align 8
@JVMCIEventLogLevel = external global i64, align 8
@.str.7 = private unnamed_addr constant [60 x i8] c"relocating (narrow metaspace constant) at 0x%016lx/0x%016lx\00", align 1
@.str.8 = private unnamed_addr constant [53 x i8] c"relocating (metaspace constant) at 0x%016lx/0x%016lx\00", align 1

; Function Attrs: mustprogress nounwind uwtable
define linkonce_odr hidden noundef i64 @_Z3p2iPVKv(ptr noundef %0) #1 comdat {
  %2 = alloca ptr, align 8
  store ptr %0, ptr %2, align 8
  %3 = load ptr, ptr %2, align 8
  %4 = ptrtoint ptr %3 to i64
  ret i64 %4
}

; Function Attrs: mustprogress nounwind uwtable
define linkonce_odr hidden noundef ptr @_ZNK11CodeSection5startEv(ptr noundef nonnull align 8 dereferenceable(88) %0) #1 comdat align 2 {
  %2 = alloca ptr, align 8
  store ptr %0, ptr %2, align 8
  %3 = load ptr, ptr %2, align 8
  %4 = getelementptr inbounds %class.CodeSection, ptr %3, i32 0, i32 0
  %5 = load ptr, ptr %4, align 8
  ret ptr %5
}

; Function Attrs: mustprogress nounwind uwtable
define hidden void @_ZN13CodeInstaller26pd_patch_MetaspaceConstantEiP25HotSpotCompiledCodeStreamhP8JVMCIEnv(ptr noundef nonnull align 8 dereferenceable(225) %0, i32 noundef %1, ptr noundef %2, i8 noundef zeroext %3, ptr noundef %4) #1 align 2 {
  %6 = alloca ptr, align 8
  %7 = alloca i32, align 4
  %8 = alloca ptr, align 8
  %9 = alloca i8, align 1
  %10 = alloca ptr, align 8
  %11 = alloca ptr, align 8
  %12 = alloca ptr, align 8
  %13 = alloca ptr, align 8
  store ptr %0, ptr %6, align 8
  store i32 %1, ptr %7, align 4
  store ptr %2, ptr %8, align 8
  store i8 %3, ptr %9, align 1
  store ptr %4, ptr %10, align 8
  %14 = load ptr, ptr %6, align 8
  %15 = getelementptr inbounds %class.CodeInstaller, ptr %14, i32 0, i32 16
  %16 = load ptr, ptr %15, align 8
  %17 = call noundef ptr @_ZNK11CodeSection5startEv(ptr noundef nonnull align 8 dereferenceable(88) %16)
  %18 = load i32, ptr %7, align 4
  %19 = sext i32 %18 to i64
  %20 = getelementptr inbounds i8, ptr %17, i64 %19
  store ptr %20, ptr %11, align 8
  %21 = load i8, ptr %9, align 1
  %22 = zext i8 %21 to i32
  %23 = icmp eq i32 %22, 31
  br i1 %23, label %24, label %52

24:                                               ; preds = %5
  %25 = load ptr, ptr %11, align 8
  %26 = call noundef ptr @_ZN9Assembler14locate_operandEPhNS_12WhichOperandE(ptr noundef %25, i32 noundef 3)
  store ptr %26, ptr %12, align 8
  %27 = getelementptr inbounds %class.CodeInstaller, ptr %14, i32 0, i32 16
  %28 = load ptr, ptr %27, align 8
  %29 = load ptr, ptr %12, align 8
  %30 = load ptr, ptr %8, align 8
  %31 = load i8, ptr %9, align 1
  %32 = load ptr, ptr %10, align 8
  %33 = call noundef i32 @_ZN13CodeInstaller32record_narrow_metadata_referenceEP11CodeSectionPhP25HotSpotCompiledCodeStreamhP8JVMCIEnv(ptr noundef nonnull align 8 dereferenceable(225) %14, ptr noundef %28, ptr noundef %29, ptr noundef %30, i8 noundef zeroext %31, ptr noundef %32)
  %34 = load ptr, ptr %12, align 8
  store i32 %33, ptr %34, align 4
  %35 = load ptr, ptr %10, align 8
  %36 = call noundef zeroext i8 @_ZN8JVMCIEnv21has_pending_exceptionEv(ptr noundef nonnull align 8 dereferenceable(64) %35)
  %37 = icmp ne i8 %36, 0
  br i1 %37, label %38, label %39

38:                                               ; preds = %24
  br label %80

39:                                               ; preds = %24
  %40 = load i64, ptr @JVMCITraceLevel, align 8
  %41 = icmp slt i64 %40, 3
  br i1 %41, label %42, label %46

42:                                               ; preds = %39
  %43 = load i64, ptr @JVMCIEventLogLevel, align 8
  %44 = icmp slt i64 %43, 3
  br i1 %44, label %45, label %46

45:                                               ; preds = %42
  br label %51

46:                                               ; preds = %42, %39
  %47 = load ptr, ptr %11, align 8
  %48 = call noundef i64 @_Z3p2iPVKv(ptr noundef %47)
  %49 = load ptr, ptr %12, align 8
  %50 = call noundef i64 @_Z3p2iPVKv(ptr noundef %49)
  call void (ptr, ...) @_ZN5JVMCI6event3EPKcz(ptr noundef @.str.7, i64 noundef %48, i64 noundef %50)
  br label %51

51:                                               ; preds = %46, %45
  br label %80

52:                                               ; preds = %5
  %53 = load ptr, ptr %11, align 8
  %54 = call noundef ptr @_ZN9Assembler14locate_operandEPhNS_12WhichOperandE(ptr noundef %53, i32 noundef 0)
  store ptr %54, ptr %13, align 8
  %55 = getelementptr inbounds %class.CodeInstaller, ptr %14, i32 0, i32 16
  %56 = load ptr, ptr %55, align 8
  %57 = load ptr, ptr %13, align 8
  %58 = load ptr, ptr %8, align 8
  %59 = load i8, ptr %9, align 1
  %60 = load ptr, ptr %10, align 8
  %61 = call noundef ptr @_ZN13CodeInstaller25record_metadata_referenceEP11CodeSectionPhP25HotSpotCompiledCodeStreamhP8JVMCIEnv(ptr noundef nonnull align 8 dereferenceable(225) %14, ptr noundef %56, ptr noundef %57, ptr noundef %58, i8 noundef zeroext %59, ptr noundef %60)
  %62 = load ptr, ptr %13, align 8
  store ptr %61, ptr %62, align 8
  %63 = load ptr, ptr %10, align 8
  %64 = call noundef zeroext i8 @_ZN8JVMCIEnv21has_pending_exceptionEv(ptr noundef nonnull align 8 dereferenceable(64) %63)
  %65 = icmp ne i8 %64, 0
  br i1 %65, label %66, label %67

66:                                               ; preds = %52
  br label %80

67:                                               ; preds = %52
  %68 = load i64, ptr @JVMCITraceLevel, align 8
  %69 = icmp slt i64 %68, 3
  br i1 %69, label %70, label %74

70:                                               ; preds = %67
  %71 = load i64, ptr @JVMCIEventLogLevel, align 8
  %72 = icmp slt i64 %71, 3
  br i1 %72, label %73, label %74

73:                                               ; preds = %70
  br label %79

74:                                               ; preds = %70, %67
  %75 = load ptr, ptr %11, align 8
  %76 = call noundef i64 @_Z3p2iPVKv(ptr noundef %75)
  %77 = load ptr, ptr %13, align 8
  %78 = call noundef i64 @_Z3p2iPVKv(ptr noundef %77)
  call void (ptr, ...) @_ZN5JVMCI6event3EPKcz(ptr noundef @.str.8, i64 noundef %76, i64 noundef %78)
  br label %79

79:                                               ; preds = %74, %73
  br label %80

80:                                               ; preds = %79, %66, %51, %38
  ret void
}