; Function Attrs: mustprogress nounwind uwtable
define hidden void @_ZN13CodeInstaller26pd_patch_MetaspaceConstantEiP25HotSpotCompiledCodeStreamhP8JVMCIEnv(ptr noundef nonnull align 8 dereferenceable(225) %0, i32 noundef %1, ptr noundef %2, i8 noundef zeroext %3, ptr noundef %4) local_unnamed_addr #0 align 2 {
  %6 = getelementptr inbounds i8, ptr %0, i64 136
  %7 = load ptr, ptr %6, align 8
  %8 = load ptr, ptr %7, align 8
  %9 = sext i32 %1 to i64
  %10 = getelementptr inbounds i8, ptr %8, i64 %9
  %11 = icmp eq i8 %3, 31
  br i1 %11, label %12, label %22

12:                                               ; preds = %5
  %13 = tail call noundef ptr @_ZN9Assembler14locate_operandEPhNS_12WhichOperandE(ptr noundef %10, i32 noundef 3) #5
  %14 = load ptr, ptr %6, align 8
  %15 = tail call noundef i32 @_ZN13CodeInstaller32record_narrow_metadata_referenceEP11CodeSectionPhP25HotSpotCompiledCodeStreamhP8JVMCIEnv(ptr noundef nonnull align 8 dereferenceable(225) %0, ptr noundef %14, ptr noundef %13, ptr noundef %2, i8 noundef zeroext 31, ptr noundef %4) #5
  store i32 %15, ptr %13, align 4
  %16 = tail call noundef zeroext i8 @_ZN8JVMCIEnv21has_pending_exceptionEv(ptr noundef nonnull align 8 dereferenceable(64) %4) #5
  %.not23 = icmp eq i8 %16, 0
  br i1 %.not23, label %17, label %34

17:                                               ; preds = %12
  %18 = load i64, ptr @JVMCITraceLevel, align 8
  %19 = icmp slt i64 %18, 3
  %20 = load i64, ptr @JVMCIEventLogLevel, align 8
  %21 = icmp slt i64 %20, 3
  %or.cond = select i1 %19, i1 %21, i1 false
  br i1 %or.cond, label %34, label %.sink.split

22:                                               ; preds = %5
  %23 = tail call noundef ptr @_ZN9Assembler14locate_operandEPhNS_12WhichOperandE(ptr noundef %10, i32 noundef 0) #5
  %24 = load ptr, ptr %6, align 8
  %25 = tail call noundef ptr @_ZN13CodeInstaller25record_metadata_referenceEP11CodeSectionPhP25HotSpotCompiledCodeStreamhP8JVMCIEnv(ptr noundef nonnull align 8 dereferenceable(225) %0, ptr noundef %24, ptr noundef %23, ptr noundef %2, i8 noundef zeroext %3, ptr noundef %4) #5
  store ptr %25, ptr %23, align 8
  %26 = tail call noundef zeroext i8 @_ZN8JVMCIEnv21has_pending_exceptionEv(ptr noundef nonnull align 8 dereferenceable(64) %4) #5
  %.not = icmp eq i8 %26, 0
  br i1 %.not, label %27, label %34

27:                                               ; preds = %22
  %28 = load i64, ptr @JVMCITraceLevel, align 8
  %29 = icmp slt i64 %28, 3
  %30 = load i64, ptr @JVMCIEventLogLevel, align 8
  %31 = icmp slt i64 %30, 3
  %or.cond3 = select i1 %29, i1 %31, i1 false
  br i1 %or.cond3, label %34, label %.sink.split

.sink.split:                                      ; preds = %27, %17
  %.sink25 = phi ptr [ %13, %17 ], [ %23, %27 ]
  %.str.8.sink = phi ptr [ @.str.7, %17 ], [ @.str.8, %27 ]
  %32 = ptrtoint ptr %10 to i64
  %33 = ptrtoint ptr %.sink25 to i64
  tail call void (ptr, ...) @_ZN5JVMCI6event3EPKcz(ptr noundef nonnull %.str.8.sink, i64 noundef %32, i64 noundef %33) #5
  br label %34

34:                                               ; preds = %.sink.split, %27, %22, %17, %12
  ret void
}